; Function Attrs: mustprogress uwtable
define noalias noundef nonnull ptr @_Z19gmx_fopen_temporaryPc(ptr noundef %0) local_unnamed_addr #9 personality ptr @__gxx_personality_v0 {
  %2 = alloca %"class.std::filesystem::__cxx11::path", align 8
  %3 = tail call fastcc noundef i32 @_ZL21makeTemporaryFilenamePc(ptr noundef %0)
  %4 = tail call noalias ptr @fdopen(i32 noundef %3, ptr noundef nonnull @.str.27) #30
  %5 = icmp eq ptr %4, null
  br i1 %5, label %6, label %10

6:                                                ; preds = %1
  call void @llvm.lifetime.start.p0(i64 40, ptr nonnull %2) #30
  call void @_ZNSt10filesystem7__cxx114pathC2IA123_cS1_EERKT_NS1_6formatE(ptr noundef nonnull align 8 dereferenceable(40) %2, ptr noundef nonnull align 1 dereferenceable(123) @.str.2, i8 noundef zeroext 2)
  invoke void (i32, ptr, i32, ptr, ...) @_Z9gmx_fataliRKNSt10filesystem7__cxx114pathEiPKcz(i32 noundef 0, ptr noundef nonnull align 8 dereferenceable(40) %2, i32 noundef 562, ptr noundef nonnull @.str.28, ptr noundef %0) #31
          to label %7 unwind label %8

7:                                                ; preds = %6
  unreachable

8:                                                ; preds = %6
  %9 = landingpad { ptr, i32 }
          cleanup
  call void @_ZNSt10filesystem7__cxx114pathD2Ev(ptr noundef nonnull align 8 dereferenceable(40) %2) #30
  call void @llvm.lifetime.end.p0(i64 40, ptr nonnull %2) #30
  resume { ptr, i32 } %9

10:                                               ; preds = %1
  ret ptr %4
}